; Function Attrs: mustprogress uwtable
define void @_ZN5ImGui12PushClipRectERK6ImVec2S2_b(ptr noundef nonnull align 4 dereferenceable(8) %0, ptr noundef nonnull align 4 dereferenceable(8) %1, i1 noundef zeroext %2) local_unnamed_addr #0 {
  %4 = load ptr, ptr @GImGui, align 8, !tbaa !216
  %5 = getelementptr inbounds nuw i8, ptr %4, i64 5016
  %6 = load ptr, ptr %5, align 8, !tbaa !314
  %7 = getelementptr inbounds nuw i8, ptr %6, i64 204
  store i8 1, ptr %7, align 4, !tbaa !785
  %8 = getelementptr inbounds nuw i8, ptr %6, i64 704
  %9 = load ptr, ptr %8, align 8, !tbaa !452
  tail call void @_ZN10ImDrawList12PushClipRectERK6ImVec2S2_b(ptr noundef nonnull align 8 dereferenceable(216) %9, ptr noundef nonnull align 4 dereferenceable(8) %0, ptr noundef nonnull align 4 dereferenceable(8) %1, i1 noundef zeroext %2)
  %10 = load ptr, ptr %8, align 8, !tbaa !452
  %11 = getelementptr inbounds nuw i8, ptr %10, i64 152
  %12 = getelementptr inbounds nuw i8, ptr %10, i64 160
  %13 = load ptr, ptr %12, align 8, !tbaa !1139
  %14 = load i32, ptr %11, align 8, !tbaa !1140
  %15 = sext i32 %14 to i64
  %16 = getelementptr %struct.ImVec4, ptr %13, i64 %15
  %17 = getelementptr i8, ptr %16, i64 -16
  %18 = load float, ptr %17, align 4, !tbaa !273
  %19 = getelementptr i8, ptr %16, i64 -12
  %20 = load float, ptr %19, align 4, !tbaa !274
  %21 = getelementptr i8, ptr %16, i64 -8
  %22 = load float, ptr %21, align 4, !tbaa !275
  %23 = getelementptr i8, ptr %16, i64 -4
  %24 = load float, ptr %23, align 4, !tbaa !276
  %25 = getelementptr inbounds nuw i8, ptr %6, i64 600
  store float %18, ptr %25, align 8, !tbaa !87
  %.sroa.4.0..sroa_idx = getelementptr inbounds nuw i8, ptr %6, i64 604
  store float %20, ptr %.sroa.4.0..sroa_idx, align 4, !tbaa !87
  %.sroa.5.0..sroa_idx = getelementptr inbounds nuw i8, ptr %6, i64 608
  store float %22, ptr %.sroa.5.0..sroa_idx, align 8, !tbaa !87
  %.sroa.6.0..sroa_idx = getelementptr inbounds nuw i8, ptr %6, i64 612
  store float %24, ptr %.sroa.6.0..sroa_idx, align 4, !tbaa !87
  ret void
}